; Function Attrs: mustprogress nofree nounwind willreturn memory(read, inaccessiblemem: none) uwtable
define noundef zeroext i1 @_ZNK6icu_7717StringTrieBuilder15LinearMatchNodeeqERKNS0_4NodeE(ptr noundef nonnull readonly align 8 dereferenceable(40) %0, ptr noundef nonnull readonly align 8 dereferenceable(16) %1) unnamed_addr #11 align 2 {
  %3 = icmp eq ptr %0, %1
  br i1 %3, label %_ZNK6icu_7717StringTrieBuilder9ValueNodeeqERKNS0_4NodeE.exit.thread, label %4

4:                                                ; preds = %2
  %5 = load ptr, ptr %0, align 8, !tbaa !3
  %6 = getelementptr inbounds i8, ptr %5, i64 -8
  %7 = load ptr, ptr %6, align 8
  %8 = load ptr, ptr %1, align 8, !tbaa !3
  %9 = getelementptr inbounds i8, ptr %8, i64 -8
  %10 = load ptr, ptr %9, align 8
  %11 = getelementptr inbounds nuw i8, ptr %7, i64 8
  %12 = load ptr, ptr %11, align 8, !tbaa !52
  %13 = getelementptr inbounds nuw i8, ptr %10, i64 8
  %14 = load ptr, ptr %13, align 8, !tbaa !52
  %15 = icmp eq ptr %12, %14
  br i1 %15, label %_ZNK6icu_7717StringTrieBuilder4NodeeqERKS1_.exit.i, label %16

16:                                               ; preds = %4
  %17 = load i8, ptr %12, align 1, !tbaa !19
  %.not.i.i.i = icmp eq i8 %17, 42
  br i1 %.not.i.i.i, label %_ZNK6icu_7717StringTrieBuilder9ValueNodeeqERKNS0_4NodeE.exit.thread, label %_ZNKSt9type_infoeqERKS_.exit.i.i

_ZNKSt9type_infoeqERKS_.exit.i.i:                 ; preds = %16
  %18 = load i8, ptr %14, align 1, !tbaa !19
  %19 = icmp eq i8 %18, 42
  %.idx.i.i.i.i = zext i1 %19 to i64
  %20 = getelementptr inbounds nuw i8, ptr %14, i64 %.idx.i.i.i.i
  %21 = tail call i32 @strcmp(ptr noundef nonnull dereferenceable(1) %12, ptr noundef nonnull dereferenceable(1) %20) #16
  %22 = icmp eq i32 %21, 0
  br i1 %22, label %_ZNK6icu_7717StringTrieBuilder4NodeeqERKS1_.exit.i, label %_ZNK6icu_7717StringTrieBuilder9ValueNodeeqERKNS0_4NodeE.exit.thread

_ZNK6icu_7717StringTrieBuilder4NodeeqERKS1_.exit.i: ; preds = %_ZNKSt9type_infoeqERKS_.exit.i.i, %4
  %23 = getelementptr inbounds nuw i8, ptr %0, i64 8
  %24 = load i32, ptr %23, align 8, !tbaa !14
  %25 = getelementptr inbounds nuw i8, ptr %1, i64 8
  %26 = load i32, ptr %25, align 8, !tbaa !14
  %27 = icmp eq i32 %24, %26
  br i1 %27, label %28, label %_ZNK6icu_7717StringTrieBuilder9ValueNodeeqERKNS0_4NodeE.exit.thread

28:                                               ; preds = %_ZNK6icu_7717StringTrieBuilder4NodeeqERKS1_.exit.i
  %29 = getelementptr inbounds nuw i8, ptr %0, i64 16
  %30 = load i8, ptr %29, align 8, !tbaa !22
  %31 = getelementptr inbounds nuw i8, ptr %1, i64 16
  %32 = load i8, ptr %31, align 8, !tbaa !22
  %33 = icmp eq i8 %30, %32
  br i1 %33, label %34, label %_ZNK6icu_7717StringTrieBuilder9ValueNodeeqERKNS0_4NodeE.exit.thread

34:                                               ; preds = %28
  %.not.i = icmp eq i8 %30, 0
  br i1 %.not.i, label %_ZNK6icu_7717StringTrieBuilder9ValueNodeeqERKNS0_4NodeE.exit.thread10, label %_ZNK6icu_7717StringTrieBuilder9ValueNodeeqERKNS0_4NodeE.exit

_ZNK6icu_7717StringTrieBuilder9ValueNodeeqERKNS0_4NodeE.exit: ; preds = %34
  %35 = getelementptr inbounds nuw i8, ptr %0, i64 20
  %36 = load i32, ptr %35, align 4, !tbaa !24
  %37 = getelementptr inbounds nuw i8, ptr %1, i64 20
  %38 = load i32, ptr %37, align 4, !tbaa !24
  %39 = icmp eq i32 %36, %38
  br i1 %39, label %_ZNK6icu_7717StringTrieBuilder9ValueNodeeqERKNS0_4NodeE.exit.thread10, label %_ZNK6icu_7717StringTrieBuilder9ValueNodeeqERKNS0_4NodeE.exit.thread

_ZNK6icu_7717StringTrieBuilder9ValueNodeeqERKNS0_4NodeE.exit.thread10: ; preds = %34, %_ZNK6icu_7717StringTrieBuilder9ValueNodeeqERKNS0_4NodeE.exit
  %40 = getelementptr inbounds nuw i8, ptr %0, i64 24
  %41 = load i32, ptr %40, align 8, !tbaa !55
  %42 = getelementptr inbounds nuw i8, ptr %1, i64 24
  %43 = load i32, ptr %42, align 8, !tbaa !55
  %44 = icmp eq i32 %41, %43
  br i1 %44, label %45, label %_ZNK6icu_7717StringTrieBuilder9ValueNodeeqERKNS0_4NodeE.exit.thread

45:                                               ; preds = %_ZNK6icu_7717StringTrieBuilder9ValueNodeeqERKNS0_4NodeE.exit.thread10
  %46 = getelementptr inbounds nuw i8, ptr %0, i64 32
  %47 = load ptr, ptr %46, align 8, !tbaa !57
  %48 = getelementptr inbounds nuw i8, ptr %1, i64 32
  %49 = load ptr, ptr %48, align 8, !tbaa !57
  %50 = icmp eq ptr %47, %49
  br label %_ZNK6icu_7717StringTrieBuilder9ValueNodeeqERKNS0_4NodeE.exit.thread

_ZNK6icu_7717StringTrieBuilder9ValueNodeeqERKNS0_4NodeE.exit.thread: ; preds = %16, %_ZNKSt9type_infoeqERKS_.exit.i.i, %28, %_ZNK6icu_7717StringTrieBuilder4NodeeqERKS1_.exit.i, %_ZNK6icu_7717StringTrieBuilder9ValueNodeeqERKNS0_4NodeE.exit.thread10, %45, %_ZNK6icu_7717StringTrieBuilder9ValueNodeeqERKNS0_4NodeE.exit, %2
  %.0 = phi i1 [ true, %2 ], [ false, %_ZNK6icu_7717StringTrieBuilder9ValueNodeeqERKNS0_4NodeE.exit ], [ false, %_ZNK6icu_7717StringTrieBuilder9ValueNodeeqERKNS0_4NodeE.exit.thread10 ], [ %50, %45 ], [ false, %_ZNK6icu_7717StringTrieBuilder4NodeeqERKS1_.exit.i ], [ false, %28 ], [ false, %_ZNKSt9type_infoeqERKS_.exit.i.i ], [ false, %16 ]
  ret i1 %.0
}